; ModuleID = '19/3042.c'
source_filename = "19/3042.c"
target datalayout = "e-m:e-p270:32:32-p271:32:32-p272:64:64-i64:64-f80:128-n8:16:32:64-S128"
target triple = "x86_64-pc-linux-gnu"

@.str = private unnamed_addr constant [6 x i8] c"%s %s\00", align 1
@.str.1 = private unnamed_addr constant [3 x i8] c"%s\00", align 1
@.str.2 = private unnamed_addr constant [4 x i8] c" %s\00", align 1

; Function Attrs: noinline nounwind uwtable
define dso_local i32 @main() #0 {
  %1 = alloca i32, align 4
  %2 = alloca [300 x i8], align 16
  %3 = alloca [200 x i8], align 16
  %4 = alloca [200 x i8], align 16
  %5 = alloca [200 x [200 x i8]], align 16
  %6 = alloca i32, align 4
  %7 = alloca i32, align 4
  %8 = alloca i32, align 4
  %9 = alloca i32, align 4
  %10 = alloca i32, align 4
  %11 = alloca i32, align 4
  store i32 0, i32* %1, align 4
  %12 = getelementptr inbounds [300 x i8], [300 x i8]* %2, i64 0, i64 0
  %13 = call i32 (i8*, ...) bitcast (i32 (...)* @gets to i32 (i8*, ...)*)(i8* %12)
  %14 = getelementptr inbounds [200 x i8], [200 x i8]* %3, i64 0, i64 0
  %15 = getelementptr inbounds [200 x i8], [200 x i8]* %4, i64 0, i64 0
  %16 = call i32 (i8*, ...) @__isoc99_scanf(i8* getelementptr inbounds ([6 x i8], [6 x i8]* @.str, i64 0, i64 0), i8* %14, i8* %15)
  store i32 0, i32* %10, align 4
  store i32 0, i32* %11, align 4
  %17 = getelementptr inbounds [300 x i8], [300 x i8]* %2, i64 0, i64 0
  %18 = call i64 @strlen(i8* %17) #3
  %19 = trunc i64 %18 to i32
  store i32 %19, i32* %6, align 4
  store i32 0, i32* %8, align 4
  br label %20

20:                                               ; preds = %48, %0
  %21 = load i32, i32* %8, align 4
  %22 = load i32, i32* %6, align 4
  %23 = icmp slt i32 %21, %22
  br i1 %23, label %24, label %51

24:                                               ; preds = %20
  %25 = load i32, i32* %8, align 4
  %26 = sext i32 %25 to i64
  %27 = getelementptr inbounds [300 x i8], [300 x i8]* %2, i64 0, i64 %26
  %28 = load i8, i8* %27, align 1
  %29 = sext i8 %28 to i32
  %30 = icmp eq i32 %29, 32
  br i1 %30, label %31, label %34

31:                                               ; preds = %24
  %32 = load i32, i32* %10, align 4
  %33 = add nsw i32 %32, 1
  store i32 %33, i32* %10, align 4
  store i32 0, i32* %11, align 4
  br label %47

34:                                               ; preds = %24
  %35 = load i32, i32* %8, align 4
  %36 = sext i32 %35 to i64
  %37 = getelementptr inbounds [300 x i8], [300 x i8]* %2, i64 0, i64 %36
  %38 = load i8, i8* %37, align 1
  %39 = load i32, i32* %10, align 4
  %40 = sext i32 %39 to i64
  %41 = getelementptr inbounds [200 x [200 x i8]], [200 x [200 x i8]]* %5, i64 0, i64 %40
  %42 = load i32, i32* %11, align 4
  %43 = sext i32 %42 to i64
  %44 = getelementptr inbounds [200 x i8], [200 x i8]* %41, i64 0, i64 %43
  store i8 %38, i8* %44, align 1
  %45 = load i32, i32* %11, align 4
  %46 = add nsw i32 %45, 1
  store i32 %46, i32* %11, align 4
  br label %47

47:                                               ; preds = %34, %31
  br label %48

48:                                               ; preds = %47
  %49 = load i32, i32* %8, align 4
  %50 = add nsw i32 %49, 1
  store i32 %50, i32* %8, align 4
  br label %20

51:                                               ; preds = %20
  %52 = getelementptr inbounds [200 x [200 x i8]], [200 x [200 x i8]]* %5, i64 0, i64 0
  %53 = getelementptr inbounds [200 x i8], [200 x i8]* %52, i64 0, i64 0
  %54 = getelementptr inbounds [200 x i8], [200 x i8]* %3, i64 0, i64 0
  %55 = call i32 @strcmp(i8* %53, i8* %54) #3
  %56 = icmp eq i32 %55, 0
  br i1 %56, label %57, label %60

57:                                               ; preds = %51
  %58 = getelementptr inbounds [200 x i8], [200 x i8]* %4, i64 0, i64 0
  %59 = call i32 (i8*, ...) @printf(i8* getelementptr inbounds ([3 x i8], [3 x i8]* @.str.1, i64 0, i64 0), i8* %58)
  br label %64

60:                                               ; preds = %51
  %61 = getelementptr inbounds [200 x [200 x i8]], [200 x [200 x i8]]* %5, i64 0, i64 0
  %62 = getelementptr inbounds [200 x i8], [200 x i8]* %61, i64 0, i64 0
  %63 = call i32 (i8*, ...) @printf(i8* getelementptr inbounds ([3 x i8], [3 x i8]* @.str.1, i64 0, i64 0), i8* %62)
  br label %64

64:                                               ; preds = %60, %57
  store i32 1, i32* %9, align 4
  br label %65

65:                                               ; preds = %87, %64
  %66 = load i32, i32* %9, align 4
  %67 = load i32, i32* %10, align 4
  %68 = icmp sle i32 %66, %67
  br i1 %68, label %69, label %90

69:                                               ; preds = %65
  %70 = load i32, i32* %9, align 4
  %71 = sext i32 %70 to i64
  %72 = getelementptr inbounds [200 x [200 x i8]], [200 x [200 x i8]]* %5, i64 0, i64 %71
  %73 = getelementptr inbounds [200 x i8], [200 x i8]* %72, i64 0, i64 0
  %74 = getelementptr inbounds [200 x i8], [200 x i8]* %3, i64 0, i64 0
  %75 = call i32 @strcmp(i8* %73, i8* %74) #3
  %76 = icmp eq i32 %75, 0
  br i1 %76, label %77, label %80

77:                                               ; preds = %69
  %78 = getelementptr inbounds [200 x i8], [200 x i8]* %4, i64 0, i64 0
  %79 = call i32 (i8*, ...) @printf(i8* getelementptr inbounds ([4 x i8], [4 x i8]* @.str.2, i64 0, i64 0), i8* %78)
  br label %86

80:                                               ; preds = %69
  %81 = load i32, i32* %9, align 4
  %82 = sext i32 %81 to i64
  %83 = getelementptr inbounds [200 x [200 x i8]], [200 x [200 x i8]]* %5, i64 0, i64 %82
  %84 = getelementptr inbounds [200 x i8], [200 x i8]* %83, i64 0, i64 0
  %85 = call i32 (i8*, ...) @printf(i8* getelementptr inbounds ([4 x i8], [4 x i8]* @.str.2, i64 0, i64 0), i8* %84)
  br label %86

86:                                               ; preds = %80, %77
  br label %87

87:                                               ; preds = %86
  %88 = load i32, i32* %9, align 4
  %89 = add nsw i32 %88, 1
  store i32 %89, i32* %9, align 4
  br label %65

90:                                               ; preds = %65
  ret i32 0
}

declare dso_local i32 @gets(...) #1

declare dso_local i32 @__isoc99_scanf(i8*, ...) #1

; Function Attrs: nounwind readonly
declare dso_local i64 @strlen(i8*) #2

; Function Attrs: nounwind readonly
declare dso_local i32 @strcmp(i8*, i8*) #2

declare dso_local i32 @printf(i8*, ...) #1


!llvm.module.flags = !{!0}
!llvm.ident = !{!1}

!0 = !{i32 1, !"wchar_size", i32 4}
!1 = !{!"clang version 10.0.0-4ubuntu1 "}
